Certificate:
    Data:
        Version: 3 (0x2)
        Serial Number: 1 (0x1)
        Signature Algorithm: sha1WithRSAEncryption
        Issuer: C=IT, ST=Italy, L=Sesto Fiorentino, O=Unirel spa, OU=CA, CN=localhost.localdomain/emailAddress=root@localhost.localdomain
        Validity
            Not Before: Jul 15 15:30:55 2010 GMT
            Not After : Jun 27 15:30:55 2021 GMT
        Subject: C=IT, ST=Italy, O=Unirel spa, OU=server, CN=localhost.localdomain/emailAddress=root@localhost.localdomain
        Subject Public Key Info:
            Public Key Algorithm: rsaEncryption
                Public-Key: (1024 bit)
                Modulus:
                    00:e5:83:d1:9f:19:40:25:1b:a9:6f:25:b1:4d:ef:
                    ad:76:b1:ae:99:d5:d2:28:8c:9b:7f:e8:67:28:a3:
                    8c:4e:84:b6:bd:ab:88:74:f3:1a:22:8a:08:94:03:
                    31:cd:24:bc:65:b2:37:5f:5b:d9:ca:1a:b6:fe:58:
                    1f:6f:37:80:42:37:14:02:38:91:b8:47:ca:e8:8d:
                    e7:c0:15:10:44:91:84:71:79:5a:9d:11:e0:f8:fc:
                    c0:78:49:b2:53:ce:2b:fa:16:38:91:92:83:1c:a5:
                    43:d1:a0:3b:08:75:b7:98:fc:b8:4f:1d:2f:5d:c0:
                    8a:8a:d3:5f:71:2e:4d:ab:61
                Exponent: 65537 (0x10001)
        X509v3 extensions:
            X509v3 Basic Constraints: 
                CA:FALSE
            Netscape Comment: 
                OpenSSL Generated Certificate
            X509v3 Subject Key Identifier: 
                FC:B7:3C:64:67:D6:EF:EC:B5:8F:F9:08:5F:C2:FF:CA:2C:7E:B2:9B
            X509v3 Authority Key Identifier: 
                keyid:C3:B4:79:0A:D0:CA:3A:3C:AC:68:99:A7:DB:CB:0C:DF:1D:0B:FB:9F

    Signature Algorithm: sha1WithRSAEncryption
        1c:a0:d3:06:e2:e8:51:cf:42:59:48:e2:a4:83:56:81:40:74:
        f0:ea:92:37:4b:15:98:8b:7a:a2:7f:33:ea:c2:5a:6a:b9:f9:
        cf:00:84:90:c2:52:bd:29:db:03:15:e4:a3:19:0f:0e:ea:41:
        0e:7b:1b:8d:86:e0:e5:26:df:e0:88:7c:1c:a3:69:b2:3d:2e:
        73:7e:30:6b:41:62:b7:31:ff:45:c6:33:3d:73:2b:24:f3:91:
        bf:0c:ca:4d:64:23:35:af:17:14:f6:ca:4e:5e:4a:63:e1:45:
        20:69:0a:8f:36:32:25:a0:33:cb:ce:11:23:e6:ac:b8:67:28:
        e8:a0
-----BEGIN CERTIFICATE-----
MIIDJjCCAo+gAwIBAgIBATANBgkqhkiG9w0BAQUFADCBpTELMAkGA1UEBhMCSVQx
DjAMBgNVBAgMBUl0YWx5MRkwFwYDVQQHDBBTZXN0byBGaW9yZW50aW5vMRMwEQYD
VQQKDApVbmlyZWwgc3BhMQswCQYDVQQLDAJDQTEeMBwGA1UEAwwVbG9jYWxob3N0
LmxvY2FsZG9tYWluMSkwJwYJKoZIhvcNAQkBFhpyb290QGxvY2FsaG9zdC5sb2Nh
bGRvbWFpbjAeFw0xMDA3MTUxNTMwNTVaFw0yMTA2MjcxNTMwNTVaMIGOMQswCQYD
VQQGEwJJVDEOMAwGA1UECAwFSXRhbHkxEzARBgNVBAoMClVuaXJlbCBzcGExDzAN
BgNVBAsMBnNlcnZlcjEeMBwGA1UEAwwVbG9jYWxob3N0LmxvY2FsZG9tYWluMSkw
JwYJKoZIhvcNAQkBFhpyb290QGxvY2FsaG9zdC5sb2NhbGRvbWFpbjCBnzANBgkq
hkiG9w0BAQEFAAOBjQAwgYkCgYEA5YPRnxlAJRupbyWxTe+tdrGumdXSKIybf+hn
KKOMToS2vauIdPMaIooIlAMxzSS8ZbI3X1vZyhq2/lgfbzeAQjcUAjiRuEfK6I3n
wBUQRJGEcXlanRHg+PzAeEmyU84r+hY4kZKDHKVD0aA7CHW3mPy4Tx0vXcCKitNf
cS5Nq2ECAwEAAaN7MHkwCQYDVR0TBAIwADAsBglghkgBhvhCAQ0EHxYdT3BlblNT
TCBHZW5lcmF0ZWQgQ2VydGlmaWNhdGUwHQYDVR0OBBYEFPy3PGRn1u/stY/5CF/C
/8osfrKbMB8GA1UdIwQYMBaAFMO0eQrQyjo8rGiZp9vLDN8dC/ufMA0GCSqGSIb3
DQEBBQUAA4GBAByg0wbi6FHPQllI4qSDVoFAdPDqkjdLFZiLeqJ/M+rCWmq5+c8A
hJDCUr0p2wMV5KMZDw7qQQ57G42G4OUm3+CIfByjabI9LnN+MGtBYrcx/0XGMz1z
KyTzkb8Myk1kIzWvFxT2yk5eSmPhRSBpCo82MiWgM8vOESPmrLhnKOig
-----END CERTIFICATE-----
