Certificate:
    Data:
        Version: 3 (0x2)
        Serial Number: 2 (0x2)
        Signature Algorithm: sha1WithRSAEncryption
        Issuer: C=IT, ST=Italy, L=Sesto Fiorentino, O=Unirel spa, OU=CA, CN=localhost.localdomain/emailAddress=root@localhost.localdomain
        Validity
            Not Before: Jul 15 15:31:02 2010 GMT
            Not After : Jun 27 15:31:02 2021 GMT
        Subject: C=IT, ST=Italy, O=Unirel spa, OU=username, CN=localhost.localdomain/emailAddress=root@localhost.localdomain
        Subject Public Key Info:
            Public Key Algorithm: rsaEncryption
                Public-Key: (1024 bit)
                Modulus:
                    00:d8:8f:63:13:ed:e3:a7:74:52:14:a7:e9:73:42:
                    c8:ff:82:29:08:c7:aa:6c:ee:c5:cc:b7:2c:e1:55:
                    5a:e0:68:7d:ee:ef:e7:11:0c:b4:43:0a:98:66:c4:
                    3e:71:00:14:90:5f:fa:d3:0f:fd:bd:ae:52:4d:55:
                    fb:b7:c9:70:07:66:86:2f:6a:4b:ba:e9:0f:f2:7a:
                    2c:41:13:6a:a6:18:43:01:6b:e7:25:cf:49:fe:79:
                    f5:ea:17:16:35:91:6f:64:dd:85:3a:a7:f0:5e:a2:
                    34:4a:b6:34:f4:c1:ce:09:f8:b1:0b:a2:d2:1b:8f:
                    dc:55:b7:5d:c8:1b:57:dd:99
                Exponent: 65537 (0x10001)
        X509v3 extensions:
            X509v3 Basic Constraints: 
                CA:FALSE
            Netscape Comment: 
                OpenSSL Generated Certificate
            X509v3 Subject Key Identifier: 
                DA:E9:09:6B:64:FF:83:E1:F4:F6:7A:6A:B5:14:C0:AE:DB:CE:AD:1B
            X509v3 Authority Key Identifier: 
                keyid:C3:B4:79:0A:D0:CA:3A:3C:AC:68:99:A7:DB:CB:0C:DF:1D:0B:FB:9F

    Signature Algorithm: sha1WithRSAEncryption
        57:f8:c1:05:fc:bc:2c:5f:c6:d8:9a:9e:38:da:9e:2d:a0:29:
        27:ad:17:1c:13:d4:dd:46:e2:55:6c:8e:27:8d:04:a7:50:b2:
        91:33:68:dd:13:d7:55:e1:b3:2b:43:a6:88:f1:57:6c:ad:04:
        4a:c5:90:50:af:96:1f:90:49:25:c6:5c:ce:f4:d0:c1:2d:b9:
        d5:ef:d7:21:de:17:09:44:dc:7c:50:de:0a:59:c6:be:0b:74:
        b2:f5:e0:8a:e3:c2:2d:1d:85:cf:94:00:c4:eb:ac:5b:82:67:
        28:94:1f:7e:d4:36:5c:39:5e:7e:8e:b4:b5:8a:a4:e8:96:22:
        7a:a5
-----BEGIN CERTIFICATE-----
MIIDKDCCApGgAwIBAgIBAjANBgkqhkiG9w0BAQUFADCBpTELMAkGA1UEBhMCSVQx
DjAMBgNVBAgMBUl0YWx5MRkwFwYDVQQHDBBTZXN0byBGaW9yZW50aW5vMRMwEQYD
VQQKDApVbmlyZWwgc3BhMQswCQYDVQQLDAJDQTEeMBwGA1UEAwwVbG9jYWxob3N0
LmxvY2FsZG9tYWluMSkwJwYJKoZIhvcNAQkBFhpyb290QGxvY2FsaG9zdC5sb2Nh
bGRvbWFpbjAeFw0xMDA3MTUxNTMxMDJaFw0yMTA2MjcxNTMxMDJaMIGQMQswCQYD
VQQGEwJJVDEOMAwGA1UECAwFSXRhbHkxEzARBgNVBAoMClVuaXJlbCBzcGExETAP
BgNVBAsMCHVzZXJuYW1lMR4wHAYDVQQDDBVsb2NhbGhvc3QubG9jYWxkb21haW4x
KTAnBgkqhkiG9w0BCQEWGnJvb3RAbG9jYWxob3N0LmxvY2FsZG9tYWluMIGfMA0G
CSqGSIb3DQEBAQUAA4GNADCBiQKBgQDYj2MT7eOndFIUp+lzQsj/gikIx6ps7sXM
tyzhVVrgaH3u7+cRDLRDCphmxD5xABSQX/rTD/29rlJNVfu3yXAHZoYvaku66Q/y
eixBE2qmGEMBa+clz0n+efXqFxY1kW9k3YU6p/BeojRKtjT0wc4J+LELotIbj9xV
t13IG1fdmQIDAQABo3sweTAJBgNVHRMEAjAAMCwGCWCGSAGG+EIBDQQfFh1PcGVu
U1NMIEdlbmVyYXRlZCBDZXJ0aWZpY2F0ZTAdBgNVHQ4EFgQU2ukJa2T/g+H09npq
tRTArtvOrRswHwYDVR0jBBgwFoAUw7R5CtDKOjysaJmn28sM3x0L+58wDQYJKoZI
hvcNAQEFBQADgYEAV/jBBfy8LF/G2JqeONqeLaApJ60XHBPU3UbiVWyOJ40Ep1Cy
kTNo3RPXVeGzK0OmiPFXbK0ESsWQUK+WH5BJJcZczvTQwS251e/XId4XCUTcfFDe
ClnGvgt0svXgiuPCLR2Fz5QAxOusW4JnKJQfftQ2XDlefo60tYqk6JYieqU=
-----END CERTIFICATE-----
